; Function Attrs: mustprogress nofree norecurse nosync nounwind willreturn memory(read, inaccessiblemem: none) uwtable
define dso_local range(i32 0, 16) i32 @lua_gethookmask(ptr noundef readonly captures(none) %0) local_unnamed_addr #8 {
  %2 = getelementptr inbounds nuw i8, ptr %0, i64 16
  %3 = load i64, ptr %2, align 8, !tbaa !54
  %4 = inttoptr i64 %3 to ptr
  %5 = getelementptr inbounds nuw i8, ptr %4, i64 145
  %6 = load i8, ptr %5, align 1, !tbaa !50
  %7 = and i8 %6, 15
  %8 = zext nneg i8 %7 to i32
  ret i32 %8
}